target datalayout = "e-m:e-p270:32:32-p271:32:32-p272:64:64-i64:64-i128:128-f80:128-n8:16:32:64-S128"
target triple = "x86_64-pc-linux-gnu"

@.str.5 = private unnamed_addr constant [26 x i8] c"../openssl/test/dsatest.c\00", align 1
@.str.22 = private unnamed_addr constant [2 x i8] c"0\00", align 1
@.str.28 = private unnamed_addr constant [4 x i8] c"DSA\00", align 1
@.str.97 = private unnamed_addr constant [56 x i8] c"gen_ctx = EVP_PKEY_CTX_new_from_name(NULL, \22DSA\22, NULL)\00", align 1
@.str.98 = private unnamed_addr constant [32 x i8] c"EVP_PKEY_paramgen_init(gen_ctx)\00", align 1
@.str.99 = private unnamed_addr constant [49 x i8] c"EVP_PKEY_CTX_set_dsa_paramgen_bits(gen_ctx, 512)\00", align 1
@.str.100 = private unnamed_addr constant [36 x i8] c"EVP_PKEY_generate(gen_ctx, &params)\00", align 1
@.str.101 = private unnamed_addr constant [59 x i8] c"check_ctx = EVP_PKEY_CTX_new_from_pkey(NULL, params, NULL)\00", align 1
@.str.102 = private unnamed_addr constant [32 x i8] c"EVP_PKEY_param_check(check_ctx)\00", align 1

; Function Attrs: nounwind uwtable
define internal i32 @test_dsa_default_paramgen_validate(i32 noundef %0) #0 {
  %2 = alloca i32, align 4
  %3 = alloca i32, align 4
  %4 = alloca ptr, align 8
  %5 = alloca ptr, align 8
  %6 = alloca ptr, align 8
  store i32 %0, ptr %2, align 4, !tbaa !9
  call void @llvm.lifetime.start.p0(i64 4, ptr %3) #4
  call void @llvm.lifetime.start.p0(i64 8, ptr %4) #4
  store ptr null, ptr %4, align 8, !tbaa !19
  call void @llvm.lifetime.start.p0(i64 8, ptr %5) #4
  store ptr null, ptr %5, align 8, !tbaa !19
  call void @llvm.lifetime.start.p0(i64 8, ptr %6) #4
  store ptr null, ptr %6, align 8, !tbaa !17
  %7 = call ptr @EVP_PKEY_CTX_new_from_name(ptr noundef null, ptr noundef @.str.28, ptr noundef null)
  store ptr %7, ptr %4, align 8, !tbaa !19
  %8 = call i32 @test_ptr(ptr noundef @.str.5, i32 noundef 314, ptr noundef @.str.97, ptr noundef %7)
  %9 = icmp ne i32 %8, 0
  br i1 %9, label %10, label %40

10:                                               ; preds = %1
  %11 = load ptr, ptr %4, align 8, !tbaa !19
  %12 = call i32 @EVP_PKEY_paramgen_init(ptr noundef %11)
  %13 = call i32 @test_int_gt(ptr noundef @.str.5, i32 noundef 315, ptr noundef @.str.98, ptr noundef @.str.22, i32 noundef %12, i32 noundef 0)
  %14 = icmp ne i32 %13, 0
  br i1 %14, label %15, label %40

15:                                               ; preds = %10
  %16 = load i32, ptr %2, align 4, !tbaa !9
  %17 = icmp eq i32 %16, 0
  br i1 %17, label %25, label %18

18:                                               ; preds = %15
  %19 = load ptr, ptr %4, align 8, !tbaa !19
  %20 = call i32 @EVP_PKEY_CTX_set_dsa_paramgen_bits(ptr noundef %19, i32 noundef 512)
  %21 = icmp ne i32 %20, 0
  %22 = zext i1 %21 to i32
  %23 = call i32 @test_true(ptr noundef @.str.5, i32 noundef 317, ptr noundef @.str.99, i32 noundef %22)
  %24 = icmp ne i32 %23, 0
  br i1 %24, label %25, label %40

25:                                               ; preds = %18, %15
  %26 = load ptr, ptr %4, align 8, !tbaa !19
  %27 = call i32 @EVP_PKEY_generate(ptr noundef %26, ptr noundef %6)
  %28 = call i32 @test_int_gt(ptr noundef @.str.5, i32 noundef 318, ptr noundef @.str.100, ptr noundef @.str.22, i32 noundef %27, i32 noundef 0)
  %29 = icmp ne i32 %28, 0
  br i1 %29, label %30, label %40

30:                                               ; preds = %25
  %31 = load ptr, ptr %6, align 8, !tbaa !17
  %32 = call ptr @EVP_PKEY_CTX_new_from_pkey(ptr noundef null, ptr noundef %31, ptr noundef null)
  store ptr %32, ptr %5, align 8, !tbaa !19
  %33 = call i32 @test_ptr(ptr noundef @.str.5, i32 noundef 319, ptr noundef @.str.101, ptr noundef %32)
  %34 = icmp ne i32 %33, 0
  br i1 %34, label %35, label %40

35:                                               ; preds = %30
  %36 = load ptr, ptr %5, align 8, !tbaa !19
  %37 = call i32 @EVP_PKEY_param_check(ptr noundef %36)
  %38 = call i32 @test_int_gt(ptr noundef @.str.5, i32 noundef 320, ptr noundef @.str.102, ptr noundef @.str.22, i32 noundef %37, i32 noundef 0)
  %39 = icmp ne i32 %38, 0
  br label %40

40:                                               ; preds = %35, %30, %25, %18, %10, %1
  %41 = phi i1 [ false, %30 ], [ false, %25 ], [ false, %18 ], [ false, %10 ], [ false, %1 ], [ %39, %35 ]
  %42 = zext i1 %41 to i32
  store i32 %42, ptr %3, align 4, !tbaa !9
  %43 = load ptr, ptr %6, align 8, !tbaa !17
  call void @EVP_PKEY_free(ptr noundef %43)
  %44 = load ptr, ptr %5, align 8, !tbaa !19
  call void @EVP_PKEY_CTX_free(ptr noundef %44)
  %45 = load ptr, ptr %4, align 8, !tbaa !19
  call void @EVP_PKEY_CTX_free(ptr noundef %45)
  %46 = load i32, ptr %3, align 4, !tbaa !9
  call void @llvm.lifetime.end.p0(i64 8, ptr %6) #4
  call void @llvm.lifetime.end.p0(i64 8, ptr %5) #4
  call void @llvm.lifetime.end.p0(i64 8, ptr %4) #4
  call void @llvm.lifetime.end.p0(i64 4, ptr %3) #4
  ret i32 %46
}