; Function Attrs: nounwind uwtable
define internal range(i32 0, 2) i32 @test_dsa_default_paramgen_validate(i32 noundef %0) #0 {
  %2 = alloca ptr, align 8
  call void @llvm.lifetime.start.p0(i64 8, ptr nonnull %2) #3
  store ptr null, ptr %2, align 8, !tbaa !13
  %3 = tail call ptr @EVP_PKEY_CTX_new_from_name(ptr noundef null, ptr noundef nonnull @.str.28, ptr noundef null) #3
  %4 = tail call i32 @test_ptr(ptr noundef nonnull @.str.5, i32 noundef 314, ptr noundef nonnull @.str.97, ptr noundef %3) #3
  %.not = icmp eq i32 %4, 0
  br i1 %.not, label %27, label %5

5:                                                ; preds = %1
  %6 = tail call i32 @EVP_PKEY_paramgen_init(ptr noundef %3) #3
  %7 = tail call i32 @test_int_gt(ptr noundef nonnull @.str.5, i32 noundef 315, ptr noundef nonnull @.str.98, ptr noundef nonnull @.str.22, i32 noundef %6, i32 noundef 0) #3
  %.not7 = icmp eq i32 %7, 0
  br i1 %.not7, label %27, label %8

8:                                                ; preds = %5
  %9 = icmp eq i32 %0, 0
  br i1 %9, label %15, label %10

10:                                               ; preds = %8
  %11 = tail call i32 @EVP_PKEY_CTX_set_dsa_paramgen_bits(ptr noundef %3, i32 noundef 512) #3
  %12 = icmp ne i32 %11, 0
  %13 = zext i1 %12 to i32
  %14 = tail call i32 @test_true(ptr noundef nonnull @.str.5, i32 noundef 317, ptr noundef nonnull @.str.99, i32 noundef %13) #3
  %.not8 = icmp eq i32 %14, 0
  br i1 %.not8, label %27, label %15

15:                                               ; preds = %10, %8
  %16 = call i32 @EVP_PKEY_generate(ptr noundef %3, ptr noundef nonnull %2) #3
  %17 = call i32 @test_int_gt(ptr noundef nonnull @.str.5, i32 noundef 318, ptr noundef nonnull @.str.100, ptr noundef nonnull @.str.22, i32 noundef %16, i32 noundef 0) #3
  %.not9 = icmp eq i32 %17, 0
  br i1 %.not9, label %27, label %18

18:                                               ; preds = %15
  %19 = load ptr, ptr %2, align 8, !tbaa !13
  %20 = call ptr @EVP_PKEY_CTX_new_from_pkey(ptr noundef null, ptr noundef %19, ptr noundef null) #3
  %21 = call i32 @test_ptr(ptr noundef nonnull @.str.5, i32 noundef 319, ptr noundef nonnull @.str.101, ptr noundef %20) #3
  %.not10 = icmp eq i32 %21, 0
  br i1 %.not10, label %27, label %22

22:                                               ; preds = %18
  %23 = call i32 @EVP_PKEY_param_check(ptr noundef %20) #3
  %24 = call i32 @test_int_gt(ptr noundef nonnull @.str.5, i32 noundef 320, ptr noundef nonnull @.str.102, ptr noundef nonnull @.str.22, i32 noundef %23, i32 noundef 0) #3
  %25 = icmp ne i32 %24, 0
  %26 = zext i1 %25 to i32
  br label %27

27:                                               ; preds = %22, %18, %15, %10, %5, %1
  %.0 = phi ptr [ %20, %22 ], [ %20, %18 ], [ null, %15 ], [ null, %10 ], [ null, %5 ], [ null, %1 ]
  %28 = phi i32 [ %26, %22 ], [ 0, %18 ], [ 0, %15 ], [ 0, %10 ], [ 0, %5 ], [ 0, %1 ]
  %29 = load ptr, ptr %2, align 8, !tbaa !13
  call void @EVP_PKEY_free(ptr noundef %29) #3
  call void @EVP_PKEY_CTX_free(ptr noundef %.0) #3
  call void @EVP_PKEY_CTX_free(ptr noundef %3) #3
  call void @llvm.lifetime.end.p0(i64 8, ptr nonnull %2) #3
  ret i32 %28
}